target datalayout = "e-m:e-p270:32:32-p271:32:32-p272:64:64-i64:64-i128:128-f80:128-n8:16:32:64-S128"
target triple = "x86_64-pc-linux-gnu"

%class.MemRegion = type { ptr, i64 }
%class.CardTable = type { ptr, %class.MemRegion, i64, i64, ptr, ptr, [2 x %class.MemRegion] }

@.str.15 = private unnamed_addr constant [66 x i8] c"Card table byte_map: [0x%016lx,0x%016lx] _byte_map_base: 0x%016lx\00", align 1

; Function Attrs: mustprogress nounwind uwtable
define linkonce_odr hidden noundef i64 @_Z3p2iPVKv(ptr noundef %0) #1 comdat {
  %2 = alloca ptr, align 8
  store ptr %0, ptr %2, align 8
  %3 = load ptr, ptr %2, align 8
  %4 = ptrtoint ptr %3 to i64
  ret i64 %4
}

; Function Attrs: mustprogress nounwind uwtable
define hidden void @_ZNK9CardTable8print_onEP12outputStream(ptr noundef nonnull align 8 dereferenceable(88) %0, ptr noundef %1) unnamed_addr #1 align 2 {
  %3 = alloca ptr, align 8
  %4 = alloca ptr, align 8
  store ptr %0, ptr %3, align 8
  store ptr %1, ptr %4, align 8
  %5 = load ptr, ptr %3, align 8
  %6 = load ptr, ptr %4, align 8
  %7 = getelementptr inbounds %class.CardTable, ptr %5, i32 0, i32 4
  %8 = load ptr, ptr %7, align 8
  %9 = call noundef i64 @_Z3p2iPVKv(ptr noundef %8)
  %10 = getelementptr inbounds %class.CardTable, ptr %5, i32 0, i32 4
  %11 = load ptr, ptr %10, align 8
  %12 = getelementptr inbounds %class.CardTable, ptr %5, i32 0, i32 3
  %13 = load i64, ptr %12, align 8
  %14 = getelementptr inbounds i8, ptr %11, i64 %13
  %15 = call noundef i64 @_Z3p2iPVKv(ptr noundef %14)
  %16 = getelementptr inbounds %class.CardTable, ptr %5, i32 0, i32 5
  %17 = load ptr, ptr %16, align 8
  %18 = call noundef i64 @_Z3p2iPVKv(ptr noundef %17)
  call void (ptr, ptr, ...) @_ZN12outputStream8print_crEPKcz(ptr noundef nonnull align 8 dereferenceable(56) %6, ptr noundef @.str.15, i64 noundef %9, i64 noundef %15, i64 noundef %18)
  ret void
}