; Function Attrs: mustprogress nounwind uwtable
define hidden void @_ZNK9CardTable8print_onEP12outputStream(ptr nocapture noundef nonnull readonly align 8 dereferenceable(88) %0, ptr noundef nonnull %1) unnamed_addr #0 align 2 {
  %3 = getelementptr inbounds i8, ptr %0, i64 40
  %4 = load ptr, ptr %3, align 8
  %5 = ptrtoint ptr %4 to i64
  %6 = getelementptr inbounds i8, ptr %0, i64 32
  %7 = load i64, ptr %6, align 8
  %8 = getelementptr inbounds i8, ptr %4, i64 %7
  %9 = ptrtoint ptr %8 to i64
  %10 = getelementptr inbounds i8, ptr %0, i64 48
  %11 = load ptr, ptr %10, align 8
  %12 = ptrtoint ptr %11 to i64
  tail call void (ptr, ptr, ...) @_ZN12outputStream8print_crEPKcz(ptr noundef nonnull align 8 dereferenceable(56) %1, ptr noundef nonnull @.str.15, i64 noundef %5, i64 noundef %9, i64 noundef %12) #15
  ret void
}